target datalayout = "e-m:e-p270:32:32-p271:32:32-p272:64:64-i64:64-i128:128-f80:128-n8:16:32:64-S128"
target triple = "x86_64-pc-linux-gnu"

%struct._GString = type { ptr, i64, i64 }

@g_ascii_table = external constant ptr, align 8

; Function Attrs: inlinehint null_pointer_is_valid sspstrong uwtable
define internal ptr @g_string_append_c_inline(ptr noundef %0, i8 noundef signext %1) #9 {
  %3 = alloca ptr, align 8
  %4 = alloca i8, align 1
  store ptr %0, ptr %3, align 8
  store i8 %1, ptr %4, align 1
  %5 = load ptr, ptr %3, align 8
  %6 = getelementptr inbounds nuw %struct._GString, ptr %5, i32 0, i32 1
  %7 = load i64, ptr %6, align 8
  %8 = add i64 %7, 1
  %9 = load ptr, ptr %3, align 8
  %10 = getelementptr inbounds nuw %struct._GString, ptr %9, i32 0, i32 2
  %11 = load i64, ptr %10, align 8
  %12 = icmp ult i64 %8, %11
  br i1 %12, label %13, label %30

13:                                               ; preds = %2
  %14 = load i8, ptr %4, align 1
  %15 = load ptr, ptr %3, align 8
  %16 = getelementptr inbounds nuw %struct._GString, ptr %15, i32 0, i32 0
  %17 = load ptr, ptr %16, align 8
  %18 = load ptr, ptr %3, align 8
  %19 = getelementptr inbounds nuw %struct._GString, ptr %18, i32 0, i32 1
  %20 = load i64, ptr %19, align 8
  %21 = add i64 %20, 1
  store i64 %21, ptr %19, align 8
  %22 = getelementptr i8, ptr %17, i64 %20
  store i8 %14, ptr %22, align 1
  %23 = load ptr, ptr %3, align 8
  %24 = getelementptr inbounds nuw %struct._GString, ptr %23, i32 0, i32 0
  %25 = load ptr, ptr %24, align 8
  %26 = load ptr, ptr %3, align 8
  %27 = getelementptr inbounds nuw %struct._GString, ptr %26, i32 0, i32 1
  %28 = load i64, ptr %27, align 8
  %29 = getelementptr i8, ptr %25, i64 %28
  store i8 0, ptr %29, align 1
  br label %34

30:                                               ; preds = %2
  %31 = load ptr, ptr %3, align 8
  %32 = load i8, ptr %4, align 1
  %33 = call ptr @g_string_insert_c(ptr noundef %31, i64 noundef -1, i8 noundef signext %32)
  br label %34

34:                                               ; preds = %30, %13
  %35 = load ptr, ptr %3, align 8
  ret ptr %35
}

; Function Attrs: null_pointer_is_valid sspstrong uwtable
define void @prefs_clear_string_list(ptr noundef %0) #1 {
  %2 = alloca ptr, align 8
  store ptr %0, ptr %2, align 8
  %3 = load ptr, ptr %2, align 8
  call void @g_list_free_full(ptr noundef %3, ptr noundef @g_free)
  ret void
}

; Function Attrs: null_pointer_is_valid sspstrong uwtable
define ptr @prefs_get_string_list(ptr noundef %0) #1 {
  %2 = alloca ptr, align 8
  %3 = alloca ptr, align 8
  %4 = alloca i32, align 4
  %5 = alloca i32, align 4
  %6 = alloca i8, align 1
  %7 = alloca i8, align 1
  %8 = alloca i64, align 8
  %9 = alloca ptr, align 8
  %10 = alloca ptr, align 8
  %11 = alloca i32, align 4
  store ptr %0, ptr %3, align 8
  call void @llvm.lifetime.start.p0(i64 4, ptr %4) #17
  store i32 0, ptr %4, align 4
  call void @llvm.lifetime.start.p0(i64 4, ptr %5) #17
  store i32 0, ptr %5, align 4
  call void @llvm.lifetime.start.p0(i64 1, ptr %6) #17
  store i8 0, ptr %6, align 1
  call void @llvm.lifetime.start.p0(i64 1, ptr %7) #17
  call void @llvm.lifetime.start.p0(i64 8, ptr %8) #17
  store i64 64, ptr %8, align 8
  call void @llvm.lifetime.start.p0(i64 8, ptr %9) #17
  store ptr null, ptr %9, align 8
  call void @llvm.lifetime.start.p0(i64 8, ptr %10) #17
  store ptr null, ptr %10, align 8
  %12 = call ptr @g_string_sized_new(i64 noundef 64)
  store ptr %12, ptr %9, align 8
  br label %13

13:                                               ; preds = %113, %1
  %14 = load ptr, ptr %3, align 8
  %15 = load i32, ptr %5, align 4
  %16 = sext i32 %15 to i64
  %17 = getelementptr i8, ptr %14, i64 %16
  %18 = load i8, ptr %17, align 1
  store i8 %18, ptr %7, align 1
  %19 = load i8, ptr %7, align 1
  %20 = zext i8 %19 to i32
  %21 = icmp eq i32 %20, 0
  br i1 %21, label %22, label %46

22:                                               ; preds = %13
  %23 = load i32, ptr %4, align 4
  %24 = icmp eq i32 %23, 1
  br i1 %24, label %28, label %25

25:                                               ; preds = %22
  %26 = load i8, ptr %6, align 1, !range !6, !noundef !7
  %27 = trunc i8 %26 to i1
  br i1 %27, label %28, label %32

28:                                               ; preds = %25, %22
  %29 = load ptr, ptr %9, align 8
  %30 = call ptr @g_string_free(ptr noundef %29, i32 noundef 1)
  %31 = load ptr, ptr %10, align 8
  call void @prefs_clear_string_list(ptr noundef %31)
  store ptr null, ptr %2, align 8
  store i32 1, ptr %11, align 4
  br label %118

32:                                               ; preds = %25
  %33 = load ptr, ptr %9, align 8
  %34 = getelementptr inbounds nuw %struct._GString, ptr %33, i32 0, i32 1
  %35 = load i64, ptr %34, align 8
  %36 = icmp ugt i64 %35, 0
  br i1 %36, label %37, label %42

37:                                               ; preds = %32
  %38 = load ptr, ptr %10, align 8
  %39 = load ptr, ptr %9, align 8
  %40 = call ptr @g_string_free(ptr noundef %39, i32 noundef 0)
  %41 = call ptr @g_list_append(ptr noundef %38, ptr noundef %40)
  store ptr %41, ptr %10, align 8
  br label %45

42:                                               ; preds = %32
  %43 = load ptr, ptr %9, align 8
  %44 = call ptr @g_string_free(ptr noundef %43, i32 noundef 1)
  br label %45

45:                                               ; preds = %42, %37
  br label %116

46:                                               ; preds = %13
  %47 = load i8, ptr %7, align 1
  %48 = zext i8 %47 to i32
  %49 = icmp eq i32 %48, 34
  br i1 %49, label %50, label %60

50:                                               ; preds = %46
  %51 = load i8, ptr %6, align 1, !range !6, !noundef !7
  %52 = trunc i8 %51 to i1
  br i1 %52, label %60, label %53

53:                                               ; preds = %50
  %54 = load i32, ptr %4, align 4
  switch i32 %54, label %58 [
    i32 0, label %55
    i32 1, label %56
    i32 2, label %57
  ]

55:                                               ; preds = %53
  store i32 1, ptr %4, align 4
  br label %59

56:                                               ; preds = %53
  store i32 2, ptr %4, align 4
  br label %59

57:                                               ; preds = %53
  store i32 1, ptr %4, align 4
  br label %59

58:                                               ; preds = %53
  br label %59

59:                                               ; preds = %58, %57, %56, %55
  br label %113

60:                                               ; preds = %50, %46
  %61 = load i8, ptr %7, align 1
  %62 = zext i8 %61 to i32
  %63 = icmp eq i32 %62, 92
  br i1 %63, label %64, label %72

64:                                               ; preds = %60
  %65 = load i8, ptr %6, align 1, !range !6, !noundef !7
  %66 = trunc i8 %65 to i1
  br i1 %66, label %72, label %67

67:                                               ; preds = %64
  store i8 1, ptr %6, align 1
  %68 = load i32, ptr %4, align 4
  %69 = icmp eq i32 %68, 0
  br i1 %69, label %70, label %71

70:                                               ; preds = %67
  store i32 2, ptr %4, align 4
  br label %71

71:                                               ; preds = %70, %67
  br label %112

72:                                               ; preds = %64, %60
  %73 = load i8, ptr %7, align 1
  %74 = zext i8 %73 to i32
  %75 = icmp eq i32 %74, 44
  br i1 %75, label %76, label %94

76:                                               ; preds = %72
  %77 = load i32, ptr %4, align 4
  %78 = icmp ne i32 %77, 1
  br i1 %78, label %79, label %94

79:                                               ; preds = %76
  %80 = load i8, ptr %6, align 1, !range !6, !noundef !7
  %81 = trunc i8 %80 to i1
  br i1 %81, label %94, label %82

82:                                               ; preds = %79
  %83 = load ptr, ptr %9, align 8
  %84 = getelementptr inbounds nuw %struct._GString, ptr %83, i32 0, i32 1
  %85 = load i64, ptr %84, align 8
  %86 = icmp ugt i64 %85, 0
  br i1 %86, label %87, label %93

87:                                               ; preds = %82
  %88 = load ptr, ptr %10, align 8
  %89 = load ptr, ptr %9, align 8
  %90 = call ptr @g_string_free(ptr noundef %89, i32 noundef 0)
  %91 = call ptr @g_list_append(ptr noundef %88, ptr noundef %90)
  store ptr %91, ptr %10, align 8
  %92 = call ptr @g_string_sized_new(i64 noundef 64)
  store ptr %92, ptr %9, align 8
  br label %93

93:                                               ; preds = %87, %82
  store i32 0, ptr %4, align 4
  br label %111

94:                                               ; preds = %79, %76, %72
  %95 = load ptr, ptr @g_ascii_table, align 8
  %96 = load i8, ptr %7, align 1
  %97 = zext i8 %96 to i64
  %98 = getelementptr i16, ptr %95, i64 %97
  %99 = load i16, ptr %98, align 2
  %100 = zext i16 %99 to i32
  %101 = and i32 %100, 256
  %102 = icmp ne i32 %101, 0
  br i1 %102, label %103, label %106

103:                                              ; preds = %94
  %104 = load i32, ptr %4, align 4
  %105 = icmp ne i32 %104, 0
  br i1 %105, label %106, label %110

106:                                              ; preds = %103, %94
  %107 = load ptr, ptr %9, align 8
  %108 = load i8, ptr %7, align 1
  %109 = call ptr @g_string_append_c_inline(ptr noundef %107, i8 noundef signext %108)
  store i8 0, ptr %6, align 1
  br label %110

110:                                              ; preds = %106, %103
  br label %111

111:                                              ; preds = %110, %93
  br label %112

112:                                              ; preds = %111, %71
  br label %113

113:                                              ; preds = %112, %59
  %114 = load i32, ptr %5, align 4
  %115 = add i32 %114, 1
  store i32 %115, ptr %5, align 4
  br label %13

116:                                              ; preds = %45
  %117 = load ptr, ptr %10, align 8
  store ptr %117, ptr %2, align 8
  store i32 1, ptr %11, align 4
  br label %118

118:                                              ; preds = %116, %28
  call void @llvm.lifetime.end.p0(i64 8, ptr %10) #17
  call void @llvm.lifetime.end.p0(i64 8, ptr %9) #17
  call void @llvm.lifetime.end.p0(i64 8, ptr %8) #17
  call void @llvm.lifetime.end.p0(i64 1, ptr %7) #17
  call void @llvm.lifetime.end.p0(i64 1, ptr %6) #17
  call void @llvm.lifetime.end.p0(i64 4, ptr %5) #17
  call void @llvm.lifetime.end.p0(i64 4, ptr %4) #17
  %119 = load ptr, ptr %2, align 8
  ret ptr %119
}