; Function Attrs: null_pointer_is_valid sspstrong uwtable
define ptr @prefs_get_string_list(ptr noundef readonly captures(none) %0) local_unnamed_addr #1 {
  %2 = tail call ptr @g_string_sized_new(i64 noundef 64)
  %3 = load ptr, ptr @g_ascii_table, align 8
  br label %4

4:                                                ; preds = %g_string_append_c_inline.exit, %1
  %.040 = phi i32 [ 0, %1 ], [ %62, %g_string_append_c_inline.exit ]
  %.038 = phi i8 [ 0, %1 ], [ %.139, %g_string_append_c_inline.exit ]
  %.036 = phi i32 [ 0, %1 ], [ %.137, %g_string_append_c_inline.exit ]
  %.032 = phi ptr [ %2, %1 ], [ %.133, %g_string_append_c_inline.exit ]
  %.0 = phi ptr [ null, %1 ], [ %.2, %g_string_append_c_inline.exit ]
  %5 = sext i32 %.040 to i64
  %6 = getelementptr i8, ptr %0, i64 %5
  %7 = load i8, ptr %6, align 1
  switch i8 %7, label %29 [
    i8 0, label %8
    i8 34, label %22
    i8 92, label %25
  ]

8:                                                ; preds = %4
  %9 = icmp eq i32 %.036, 1
  br i1 %9, label %12, label %10

10:                                               ; preds = %8
  %11 = trunc nuw i8 %.038 to i1
  br i1 %11, label %12, label %14

12:                                               ; preds = %10, %8
  %13 = tail call ptr @g_string_free(ptr noundef %.032, i32 noundef 1)
  tail call void @g_list_free_full(ptr noundef %.0, ptr noundef nonnull @g_free)
  br label %63

14:                                               ; preds = %10
  %15 = getelementptr inbounds nuw i8, ptr %.032, i64 8
  %16 = load i64, ptr %15, align 8
  %.not42 = icmp eq i64 %16, 0
  br i1 %.not42, label %20, label %17

17:                                               ; preds = %14
  %18 = tail call ptr @g_string_free(ptr noundef %.032, i32 noundef 0)
  %19 = tail call ptr @g_list_append(ptr noundef %.0, ptr noundef %18)
  br label %63

20:                                               ; preds = %14
  %21 = tail call ptr @g_string_free(ptr noundef %.032, i32 noundef 1)
  br label %63

22:                                               ; preds = %4
  %23 = trunc nuw i8 %.038 to i1
  br i1 %23, label %.thread, label %24

24:                                               ; preds = %22
  %switch = icmp eq i32 %.036, 1
  %. = select i1 %switch, i32 2, i32 1
  br label %g_string_append_c_inline.exit

25:                                               ; preds = %4
  %26 = trunc nuw i8 %.038 to i1
  br i1 %26, label %.thread, label %27

27:                                               ; preds = %25
  %28 = icmp eq i32 %.036, 0
  %spec.store.select = select i1 %28, i32 2, i32 %.036
  br label %g_string_append_c_inline.exit

29:                                               ; preds = %4
  %30 = icmp eq i8 %7, 44
  %31 = icmp ne i32 %.036, 1
  %or.cond = select i1 %30, i1 %31, i1 false
  br i1 %or.cond, label %32, label %.thread

32:                                               ; preds = %29
  %33 = trunc nuw i8 %.038 to i1
  br i1 %33, label %.thread, label %34

34:                                               ; preds = %32
  %35 = getelementptr inbounds nuw i8, ptr %.032, i64 8
  %36 = load i64, ptr %35, align 8
  %.not = icmp eq i64 %36, 0
  br i1 %.not, label %g_string_append_c_inline.exit, label %37

37:                                               ; preds = %34
  %38 = tail call ptr @g_string_free(ptr noundef %.032, i32 noundef 0)
  %39 = tail call ptr @g_list_append(ptr noundef %.0, ptr noundef %38)
  %40 = tail call ptr @g_string_sized_new(i64 noundef 64)
  br label %g_string_append_c_inline.exit

.thread:                                          ; preds = %25, %22, %32, %29
  %41 = zext i8 %7 to i64
  %42 = getelementptr i16, ptr %3, i64 %41
  %43 = load i16, ptr %42, align 2
  %44 = and i16 %43, 256
  %45 = icmp eq i16 %44, 0
  %46 = icmp ne i32 %.036, 0
  %or.cond3 = select i1 %45, i1 true, i1 %46
  br i1 %or.cond3, label %47, label %g_string_append_c_inline.exit

47:                                               ; preds = %.thread
  %48 = getelementptr inbounds nuw i8, ptr %.032, i64 8
  %49 = load i64, ptr %48, align 8
  %50 = add i64 %49, 1
  %51 = getelementptr inbounds nuw i8, ptr %.032, i64 16
  %52 = load i64, ptr %51, align 8
  %53 = icmp ult i64 %50, %52
  br i1 %53, label %54, label %60

54:                                               ; preds = %47
  %55 = load ptr, ptr %.032, align 8
  store i64 %50, ptr %48, align 8
  %56 = getelementptr i8, ptr %55, i64 %49
  store i8 %7, ptr %56, align 1
  %57 = load ptr, ptr %.032, align 8
  %58 = load i64, ptr %48, align 8
  %59 = getelementptr i8, ptr %57, i64 %58
  store i8 0, ptr %59, align 1
  br label %g_string_append_c_inline.exit

60:                                               ; preds = %47
  %61 = tail call ptr @g_string_insert_c(ptr noundef %.032, i64 noundef -1, i8 noundef signext %7)
  br label %g_string_append_c_inline.exit

g_string_append_c_inline.exit:                    ; preds = %60, %54, %34, %37, %24, %27, %.thread
  %.139 = phi i8 [ %.038, %.thread ], [ 1, %27 ], [ 0, %24 ], [ 0, %37 ], [ 0, %34 ], [ 0, %54 ], [ 0, %60 ]
  %.137 = phi i32 [ 0, %.thread ], [ %spec.store.select, %27 ], [ %., %24 ], [ 0, %37 ], [ 0, %34 ], [ %.036, %54 ], [ %.036, %60 ]
  %.133 = phi ptr [ %.032, %.thread ], [ %.032, %27 ], [ %.032, %24 ], [ %40, %37 ], [ %.032, %34 ], [ %.032, %54 ], [ %.032, %60 ]
  %.2 = phi ptr [ %.0, %.thread ], [ %.0, %27 ], [ %.0, %24 ], [ %39, %37 ], [ %.0, %34 ], [ %.0, %54 ], [ %.0, %60 ]
  %62 = add i32 %.040, 1
  br label %4

63:                                               ; preds = %20, %17, %12
  %.035 = phi ptr [ null, %12 ], [ %19, %17 ], [ %.0, %20 ]
  ret ptr %.035
}